target datalayout = "e-m:e-p270:32:32-p271:32:32-p272:64:64-i64:64-i128:128-f80:128-n8:16:32:64-S128"
target triple = "x86_64-pc-linux-gnu"

; Function Attrs: mustprogress nounwind uwtable
define hidden noundef i32 @_Z7msb_posj(i32 noundef %0) #4 {
  %2 = alloca i32, align 4
  %3 = alloca i32, align 4
  %4 = alloca i32, align 4
  store i32 %0, ptr %2, align 4, !tbaa !3
  call void @llvm.lifetime.start.p0(i64 4, ptr %3) #3
  call void @llvm.lifetime.start.p0(i64 4, ptr %4) #3
  %5 = load i32, ptr %2, align 4, !tbaa !3
  %6 = icmp ugt i32 %5, 65535
  %7 = zext i1 %6 to i32
  %8 = shl i32 %7, 4
  store i32 %8, ptr %3, align 4, !tbaa !3
  %9 = load i32, ptr %3, align 4, !tbaa !3
  %10 = load i32, ptr %2, align 4, !tbaa !3
  %11 = lshr i32 %10, %9
  store i32 %11, ptr %2, align 4, !tbaa !3
  %12 = load i32, ptr %2, align 4, !tbaa !3
  %13 = icmp ugt i32 %12, 255
  %14 = zext i1 %13 to i32
  %15 = shl i32 %14, 3
  store i32 %15, ptr %4, align 4, !tbaa !3
  %16 = load i32, ptr %4, align 4, !tbaa !3
  %17 = load i32, ptr %2, align 4, !tbaa !3
  %18 = lshr i32 %17, %16
  store i32 %18, ptr %2, align 4, !tbaa !3
  %19 = load i32, ptr %4, align 4, !tbaa !3
  %20 = load i32, ptr %3, align 4, !tbaa !3
  %21 = or i32 %20, %19
  store i32 %21, ptr %3, align 4, !tbaa !3
  %22 = load i32, ptr %2, align 4, !tbaa !3
  %23 = icmp ugt i32 %22, 15
  %24 = zext i1 %23 to i32
  %25 = shl i32 %24, 2
  store i32 %25, ptr %4, align 4, !tbaa !3
  %26 = load i32, ptr %4, align 4, !tbaa !3
  %27 = load i32, ptr %2, align 4, !tbaa !3
  %28 = lshr i32 %27, %26
  store i32 %28, ptr %2, align 4, !tbaa !3
  %29 = load i32, ptr %4, align 4, !tbaa !3
  %30 = load i32, ptr %3, align 4, !tbaa !3
  %31 = or i32 %30, %29
  store i32 %31, ptr %3, align 4, !tbaa !3
  %32 = load i32, ptr %2, align 4, !tbaa !3
  %33 = icmp ugt i32 %32, 3
  %34 = zext i1 %33 to i32
  %35 = shl i32 %34, 1
  store i32 %35, ptr %4, align 4, !tbaa !3
  %36 = load i32, ptr %4, align 4, !tbaa !3
  %37 = load i32, ptr %2, align 4, !tbaa !3
  %38 = lshr i32 %37, %36
  store i32 %38, ptr %2, align 4, !tbaa !3
  %39 = load i32, ptr %4, align 4, !tbaa !3
  %40 = load i32, ptr %3, align 4, !tbaa !3
  %41 = or i32 %40, %39
  store i32 %41, ptr %3, align 4, !tbaa !3
  %42 = load i32, ptr %2, align 4, !tbaa !3
  %43 = lshr i32 %42, 1
  %44 = load i32, ptr %3, align 4, !tbaa !3
  %45 = or i32 %44, %43
  store i32 %45, ptr %3, align 4, !tbaa !3
  %46 = load i32, ptr %3, align 4, !tbaa !3
  call void @llvm.lifetime.end.p0(i64 4, ptr %4) #3
  call void @llvm.lifetime.end.p0(i64 4, ptr %3) #3
  ret i32 %46
}