; Function Attrs: mustprogress nofree norecurse nosync nounwind willreturn memory(none) uwtable
define hidden noundef range(i32 0, 128) i32 @_Z7msb_posj(i32 noundef %0) local_unnamed_addr #3 {
  %2 = icmp ugt i32 %0, 65535
  %3 = select i1 %2, i32 16, i32 0
  %4 = lshr i32 %0, %3
  %5 = icmp samesign ugt i32 %4, 255
  %6 = select i1 %5, i32 8, i32 0
  %7 = lshr i32 %4, %6
  %8 = icmp samesign ugt i32 %7, 15
  %9 = select i1 %8, i32 4, i32 0
  %10 = lshr i32 %7, %9
  %11 = icmp samesign ugt i32 %10, 3
  %12 = select i1 %11, i32 2, i32 0
  %13 = lshr i32 %10, %12
  %14 = lshr i32 %13, 1
  %15 = or i32 %3, %14
  %16 = or i32 %15, %6
  %17 = or i32 %16, %9
  %18 = or i32 %17, %12
  ret i32 %18
}